; Function Attrs: mustprogress nounwind uwtable
define dso_local void @_ZN4llvm35GlobalISelMatchTableExecutorEmitter19emitTemporariesInitERNS_11raw_ostreamEjNS_9StringRefE(ptr noundef nonnull align 8 dereferenceable(104) %0, ptr noundef nonnull align 8 dereferenceable(48) %1, i32 noundef %2, ptr %3, i64 %4) local_unnamed_addr #0 align 2 {
  %6 = getelementptr inbounds nuw i8, ptr %1, i64 24
  %7 = load ptr, ptr %6, align 8
  %8 = getelementptr inbounds nuw i8, ptr %1, i64 32
  %9 = load ptr, ptr %8, align 8
  %10 = ptrtoint ptr %7 to i64
  %11 = ptrtoint ptr %9 to i64
  %12 = sub i64 %10, %11
  %13 = icmp ult i64 %12, 7
  br i1 %13, label %14, label %16

14:                                               ; preds = %5
  %15 = tail call noundef nonnull align 8 dereferenceable(48) ptr @_ZN4llvm11raw_ostream5writeEPKcm(ptr noundef nonnull align 8 dereferenceable(48) %1, ptr noundef nonnull @.str.47, i64 noundef 7) #16
  %.phi.trans.insert = getelementptr inbounds nuw i8, ptr %15, i64 32
  %.pre = load ptr, ptr %.phi.trans.insert, align 8
  br label %_ZN4llvm11raw_ostreamlsEPKc.exit

16:                                               ; preds = %5
  tail call void @llvm.memcpy.p0.p0.i64(ptr noundef nonnull align 1 dereferenceable(7) %9, ptr noundef nonnull align 1 dereferenceable(7) @.str.47, i64 7, i1 false)
  %17 = load ptr, ptr %8, align 8
  %18 = getelementptr inbounds nuw i8, ptr %17, i64 7
  store ptr %18, ptr %8, align 8
  br label %_ZN4llvm11raw_ostreamlsEPKc.exit

_ZN4llvm11raw_ostreamlsEPKc.exit:                 ; preds = %14, %16
  %19 = phi ptr [ %.pre, %14 ], [ %18, %16 ]
  %.0.i.i = phi ptr [ %15, %14 ], [ %1, %16 ]
  %20 = getelementptr inbounds nuw i8, ptr %.0.i.i, i64 24
  %21 = load ptr, ptr %20, align 8
  %22 = getelementptr inbounds nuw i8, ptr %.0.i.i, i64 32
  %23 = ptrtoint ptr %21 to i64
  %24 = ptrtoint ptr %19 to i64
  %25 = sub i64 %23, %24
  %26 = icmp ugt i64 %4, %25
  br i1 %26, label %27, label %29

27:                                               ; preds = %_ZN4llvm11raw_ostreamlsEPKc.exit
  %28 = tail call noundef nonnull align 8 dereferenceable(48) ptr @_ZN4llvm11raw_ostream5writeEPKcm(ptr noundef nonnull align 8 dereferenceable(48) %.0.i.i, ptr noundef %3, i64 noundef %4) #16
  %.phi.trans.insert31 = getelementptr inbounds nuw i8, ptr %28, i64 32
  %.pre32 = load ptr, ptr %.phi.trans.insert31, align 8
  br label %_ZN4llvm11raw_ostreamlsENS_9StringRefE.exit

29:                                               ; preds = %_ZN4llvm11raw_ostreamlsEPKc.exit
  %.not.i = icmp eq i64 %4, 0
  br i1 %.not.i, label %_ZN4llvm11raw_ostreamlsENS_9StringRefE.exit, label %30

30:                                               ; preds = %29
  tail call void @llvm.memcpy.p0.p0.i64(ptr align 1 %19, ptr align 1 %3, i64 %4, i1 false)
  %31 = load ptr, ptr %22, align 8
  %32 = getelementptr inbounds i8, ptr %31, i64 %4
  store ptr %32, ptr %22, align 8
  br label %_ZN4llvm11raw_ostreamlsENS_9StringRefE.exit

_ZN4llvm11raw_ostreamlsENS_9StringRefE.exit:      ; preds = %27, %29, %30
  %33 = phi ptr [ %.pre32, %27 ], [ %32, %30 ], [ %19, %29 ]
  %.0.i = phi ptr [ %28, %27 ], [ %.0.i.i, %30 ], [ %.0.i.i, %29 ]
  %34 = getelementptr inbounds nuw i8, ptr %.0.i, i64 24
  %35 = load ptr, ptr %34, align 8
  %36 = icmp eq ptr %35, %33
  br i1 %36, label %37, label %39

37:                                               ; preds = %_ZN4llvm11raw_ostreamlsENS_9StringRefE.exit
  %38 = tail call noundef nonnull align 8 dereferenceable(48) ptr @_ZN4llvm11raw_ostream5writeEPKcm(ptr noundef nonnull align 8 dereferenceable(48) %.0.i, ptr noundef nonnull @.str.32, i64 noundef 1) #16
  %.phi.trans.insert33 = getelementptr inbounds nuw i8, ptr %38, i64 32
  %.pre34 = load ptr, ptr %.phi.trans.insert33, align 8
  br label %_ZN4llvm11raw_ostreamlsEPKc.exit9

39:                                               ; preds = %_ZN4llvm11raw_ostreamlsENS_9StringRefE.exit
  %40 = getelementptr inbounds nuw i8, ptr %.0.i, i64 32
  store i8 10, ptr %33, align 1
  %41 = load ptr, ptr %40, align 8
  %42 = getelementptr inbounds nuw i8, ptr %41, i64 1
  store ptr %42, ptr %40, align 8
  br label %_ZN4llvm11raw_ostreamlsEPKc.exit9

_ZN4llvm11raw_ostreamlsEPKc.exit9:                ; preds = %37, %39
  %43 = phi ptr [ %.pre34, %37 ], [ %42, %39 ]
  %.0.i.i8 = phi ptr [ %38, %37 ], [ %.0.i, %39 ]
  %44 = getelementptr inbounds nuw i8, ptr %.0.i.i8, i64 24
  %45 = load ptr, ptr %44, align 8
  %46 = ptrtoint ptr %45 to i64
  %47 = ptrtoint ptr %43 to i64
  %48 = sub i64 %46, %47
  %49 = icmp ult i64 %48, 8
  br i1 %49, label %50, label %52

50:                                               ; preds = %_ZN4llvm11raw_ostreamlsEPKc.exit9
  %51 = tail call noundef nonnull align 8 dereferenceable(48) ptr @_ZN4llvm11raw_ostream5writeEPKcm(ptr noundef nonnull align 8 dereferenceable(48) %.0.i.i8, ptr noundef nonnull @.str.68, i64 noundef 8) #16
  br label %_ZN4llvm11raw_ostreamlsEPKc.exit12

52:                                               ; preds = %_ZN4llvm11raw_ostreamlsEPKc.exit9
  %53 = getelementptr inbounds nuw i8, ptr %.0.i.i8, i64 32
  store i64 2910860696077148204, ptr %43, align 1
  %54 = load ptr, ptr %53, align 8
  %55 = getelementptr inbounds nuw i8, ptr %54, i64 8
  store ptr %55, ptr %53, align 8
  br label %_ZN4llvm11raw_ostreamlsEPKc.exit12

_ZN4llvm11raw_ostreamlsEPKc.exit12:               ; preds = %50, %52
  %.0.i.i11 = phi ptr [ %51, %50 ], [ %.0.i.i8, %52 ]
  %56 = zext i32 %2 to i64
  %57 = tail call noundef nonnull align 8 dereferenceable(48) ptr @_ZN4llvm11raw_ostreamlsEm(ptr noundef nonnull align 8 dereferenceable(48) %.0.i.i11, i64 noundef %56) #16
  %58 = getelementptr inbounds nuw i8, ptr %57, i64 24
  %59 = load ptr, ptr %58, align 8
  %60 = getelementptr inbounds nuw i8, ptr %57, i64 32
  %61 = load ptr, ptr %60, align 8
  %62 = ptrtoint ptr %59 to i64
  %63 = ptrtoint ptr %61 to i64
  %64 = sub i64 %62, %63
  %65 = icmp ult i64 %64, 3
  br i1 %65, label %66, label %68

66:                                               ; preds = %_ZN4llvm11raw_ostreamlsEPKc.exit12
  %67 = tail call noundef nonnull align 8 dereferenceable(48) ptr @_ZN4llvm11raw_ostream5writeEPKcm(ptr noundef nonnull align 8 dereferenceable(48) %57, ptr noundef nonnull @.str.69, i64 noundef 3) #16
  %.phi.trans.insert35 = getelementptr inbounds nuw i8, ptr %67, i64 32
  %.pre36 = load ptr, ptr %.phi.trans.insert35, align 8
  br label %_ZN4llvm11raw_ostreamlsEPKc.exit15

68:                                               ; preds = %_ZN4llvm11raw_ostreamlsEPKc.exit12
  tail call void @llvm.memcpy.p0.p0.i64(ptr noundef nonnull align 1 dereferenceable(3) %61, ptr noundef nonnull align 1 dereferenceable(3) @.str.69, i64 3, i1 false)
  %69 = load ptr, ptr %60, align 8
  %70 = getelementptr inbounds nuw i8, ptr %69, i64 3
  store ptr %70, ptr %60, align 8
  br label %_ZN4llvm11raw_ostreamlsEPKc.exit15

_ZN4llvm11raw_ostreamlsEPKc.exit15:               ; preds = %66, %68
  %71 = phi ptr [ %.pre36, %66 ], [ %70, %68 ]
  %.0.i.i14 = phi ptr [ %67, %66 ], [ %57, %68 ]
  %72 = getelementptr inbounds nuw i8, ptr %.0.i.i14, i64 24
  %73 = load ptr, ptr %72, align 8
  %74 = ptrtoint ptr %73 to i64
  %75 = ptrtoint ptr %71 to i64
  %76 = sub i64 %74, %75
  %77 = icmp ult i64 %76, 52
  br i1 %77, label %78, label %80

78:                                               ; preds = %_ZN4llvm11raw_ostreamlsEPKc.exit15
  %79 = tail call noundef nonnull align 8 dereferenceable(48) ptr @_ZN4llvm11raw_ostream5writeEPKcm(ptr noundef nonnull align 8 dereferenceable(48) %.0.i.i14, ptr noundef nonnull @.str.70, i64 noundef 52) #16
  %.phi.trans.insert37 = getelementptr inbounds nuw i8, ptr %79, i64 32
  %.pre38 = load ptr, ptr %.phi.trans.insert37, align 8
  br label %_ZN4llvm11raw_ostreamlsEPKc.exit18

80:                                               ; preds = %_ZN4llvm11raw_ostreamlsEPKc.exit15
  %81 = getelementptr inbounds nuw i8, ptr %.0.i.i14, i64 32
  tail call void @llvm.memcpy.p0.p0.i64(ptr noundef nonnull align 1 dereferenceable(52) %71, ptr noundef nonnull align 1 dereferenceable(52) @.str.70, i64 52, i1 false)
  %82 = load ptr, ptr %81, align 8
  %83 = getelementptr inbounds nuw i8, ptr %82, i64 52
  store ptr %83, ptr %81, align 8
  br label %_ZN4llvm11raw_ostreamlsEPKc.exit18

_ZN4llvm11raw_ostreamlsEPKc.exit18:               ; preds = %78, %80
  %84 = phi ptr [ %.pre38, %78 ], [ %83, %80 ]
  %.0.i.i17 = phi ptr [ %79, %78 ], [ %.0.i.i14, %80 ]
  %85 = getelementptr inbounds nuw i8, ptr %.0.i.i17, i64 24
  %86 = load ptr, ptr %85, align 8
  %87 = ptrtoint ptr %86 to i64
  %88 = ptrtoint ptr %84 to i64
  %89 = sub i64 %87, %88
  %90 = icmp ult i64 %89, 40
  br i1 %90, label %91, label %93

91:                                               ; preds = %_ZN4llvm11raw_ostreamlsEPKc.exit18
  %92 = tail call noundef nonnull align 8 dereferenceable(48) ptr @_ZN4llvm11raw_ostream5writeEPKcm(ptr noundef nonnull align 8 dereferenceable(48) %.0.i.i17, ptr noundef nonnull @.str.71, i64 noundef 40) #16
  %.phi.trans.insert39 = getelementptr inbounds nuw i8, ptr %92, i64 32
  %.pre40 = load ptr, ptr %.phi.trans.insert39, align 8
  br label %_ZN4llvm11raw_ostreamlsEPKc.exit21

93:                                               ; preds = %_ZN4llvm11raw_ostreamlsEPKc.exit18
  %94 = getelementptr inbounds nuw i8, ptr %.0.i.i17, i64 32
  tail call void @llvm.memcpy.p0.p0.i64(ptr noundef nonnull align 1 dereferenceable(40) %84, ptr noundef nonnull align 1 dereferenceable(40) @.str.71, i64 40, i1 false)
  %95 = load ptr, ptr %94, align 8
  %96 = getelementptr inbounds nuw i8, ptr %95, i64 40
  store ptr %96, ptr %94, align 8
  br label %_ZN4llvm11raw_ostreamlsEPKc.exit21

_ZN4llvm11raw_ostreamlsEPKc.exit21:               ; preds = %91, %93
  %97 = phi ptr [ %.pre40, %91 ], [ %96, %93 ]
  %.0.i.i20 = phi ptr [ %92, %91 ], [ %.0.i.i17, %93 ]
  %98 = getelementptr inbounds nuw i8, ptr %.0.i.i20, i64 24
  %99 = load ptr, ptr %98, align 8
  %100 = ptrtoint ptr %99 to i64
  %101 = ptrtoint ptr %97 to i64
  %102 = sub i64 %100, %101
  %103 = icmp ult i64 %102, 16
  br i1 %103, label %104, label %106

104:                                              ; preds = %_ZN4llvm11raw_ostreamlsEPKc.exit21
  %105 = tail call noundef nonnull align 8 dereferenceable(48) ptr @_ZN4llvm11raw_ostream5writeEPKcm(ptr noundef nonnull align 8 dereferenceable(48) %.0.i.i20, ptr noundef nonnull @.str.48, i64 noundef 16) #16
  %.phi.trans.insert41 = getelementptr inbounds nuw i8, ptr %105, i64 32
  %.pre42 = load ptr, ptr %.phi.trans.insert41, align 8
  br label %_ZN4llvm11raw_ostreamlsEPKc.exit24

106:                                              ; preds = %_ZN4llvm11raw_ostreamlsEPKc.exit21
  %107 = getelementptr inbounds nuw i8, ptr %.0.i.i20, i64 32
  tail call void @llvm.memcpy.p0.p0.i64(ptr noundef nonnull align 1 dereferenceable(16) %97, ptr noundef nonnull align 1 dereferenceable(16) @.str.48, i64 16, i1 false)
  %108 = load ptr, ptr %107, align 8
  %109 = getelementptr inbounds nuw i8, ptr %108, i64 16
  store ptr %109, ptr %107, align 8
  br label %_ZN4llvm11raw_ostreamlsEPKc.exit24

_ZN4llvm11raw_ostreamlsEPKc.exit24:               ; preds = %104, %106
  %110 = phi ptr [ %.pre42, %104 ], [ %109, %106 ]
  %.0.i.i23 = phi ptr [ %105, %104 ], [ %.0.i.i20, %106 ]
  %111 = getelementptr inbounds nuw i8, ptr %.0.i.i23, i64 24
  %112 = load ptr, ptr %111, align 8
  %113 = getelementptr inbounds nuw i8, ptr %.0.i.i23, i64 32
  %114 = ptrtoint ptr %112 to i64
  %115 = ptrtoint ptr %110 to i64
  %116 = sub i64 %114, %115
  %117 = icmp ugt i64 %4, %116
  br i1 %117, label %118, label %120

118:                                              ; preds = %_ZN4llvm11raw_ostreamlsEPKc.exit24
  %119 = tail call noundef nonnull align 8 dereferenceable(48) ptr @_ZN4llvm11raw_ostream5writeEPKcm(ptr noundef nonnull align 8 dereferenceable(48) %.0.i.i23, ptr noundef %3, i64 noundef %4) #16
  %.phi.trans.insert43 = getelementptr inbounds nuw i8, ptr %119, i64 32
  %.pre44 = load ptr, ptr %.phi.trans.insert43, align 8
  br label %_ZN4llvm11raw_ostreamlsENS_9StringRefE.exit27

120:                                              ; preds = %_ZN4llvm11raw_ostreamlsEPKc.exit24
  %.not.i25 = icmp eq i64 %4, 0
  br i1 %.not.i25, label %_ZN4llvm11raw_ostreamlsENS_9StringRefE.exit27, label %121

121:                                              ; preds = %120
  tail call void @llvm.memcpy.p0.p0.i64(ptr align 1 %110, ptr align 1 %3, i64 %4, i1 false)
  %122 = load ptr, ptr %113, align 8
  %123 = getelementptr inbounds i8, ptr %122, i64 %4
  store ptr %123, ptr %113, align 8
  br label %_ZN4llvm11raw_ostreamlsENS_9StringRefE.exit27

_ZN4llvm11raw_ostreamlsENS_9StringRefE.exit27:    ; preds = %118, %120, %121
  %124 = phi ptr [ %.pre44, %118 ], [ %123, %121 ], [ %110, %120 ]
  %.0.i26 = phi ptr [ %119, %118 ], [ %.0.i.i23, %121 ], [ %.0.i.i23, %120 ]
  %125 = getelementptr inbounds nuw i8, ptr %.0.i26, i64 24
  %126 = load ptr, ptr %125, align 8
  %127 = ptrtoint ptr %126 to i64
  %128 = ptrtoint ptr %124 to i64
  %129 = sub i64 %127, %128
  %130 = icmp ult i64 %129, 2
  br i1 %130, label %131, label %133

131:                                              ; preds = %_ZN4llvm11raw_ostreamlsENS_9StringRefE.exit27
  %132 = tail call noundef nonnull align 8 dereferenceable(48) ptr @_ZN4llvm11raw_ostream5writeEPKcm(ptr noundef nonnull align 8 dereferenceable(48) %.0.i26, ptr noundef nonnull @.str.49, i64 noundef 2) #16
  br label %_ZN4llvm11raw_ostreamlsEPKc.exit30

133:                                              ; preds = %_ZN4llvm11raw_ostreamlsENS_9StringRefE.exit27
  %134 = getelementptr inbounds nuw i8, ptr %.0.i26, i64 32
  store i16 2570, ptr %124, align 1
  %135 = load ptr, ptr %134, align 8
  %136 = getelementptr inbounds nuw i8, ptr %135, i64 2
  store ptr %136, ptr %134, align 8
  br label %_ZN4llvm11raw_ostreamlsEPKc.exit30

_ZN4llvm11raw_ostreamlsEPKc.exit30:               ; preds = %131, %133
  %137 = load ptr, ptr %0, align 8
  %138 = getelementptr inbounds nuw i8, ptr %137, i64 40
  %139 = load ptr, ptr %138, align 8
  tail call void %139(ptr noundef nonnull align 8 dereferenceable(104) %0, ptr noundef nonnull align 8 dereferenceable(48) %1) #16
  ret void
}